target datalayout = "e-m:e-p270:32:32-p271:32:32-p272:64:64-i64:64-i128:128-f80:128-n8:16:32:64-S128"
target triple = "x86_64-pc-linux-gnu"

%struct.expert_field = type { i32, i32 }

@hf_r3_iopins_lat = internal global i32 0, align 4
@hf_r3_iopins_port = internal global i32 0, align 4
@hf_r3_iopins_tris = internal global i32 0, align 4
@ett_r3iopins = internal global i32 0, align 4
@ei_r3_malformed_length = internal global %struct.expert_field zeroinitializer, align 4
@.str.1860 = private unnamed_addr constant [29 x i8] c"%s:%u: failed assertion \22%s\22\00", align 1
@.str.1861 = private unnamed_addr constant [33 x i8] c"epan/dissectors/packet-assa_r3.c\00", align 1
@.str.1862 = private unnamed_addr constant [18 x i8] c"start_offset == 0\00", align 1
@.str.2029 = private unnamed_addr constant [37 x i8] c"IOPINS data length not modulo 3 == 0\00", align 1
@.str.2030 = private unnamed_addr constant [22 x i8] c"Port %c Configuration\00", align 1

; Function Attrs: null_pointer_is_valid sspstrong uwtable
define internal void @dissect_r3_upstreammfgfield_iopins(ptr noundef %0, i32 noundef %1, i32 noundef %2, ptr noundef %3, ptr noundef %4) #0 {
  %6 = alloca ptr, align 8
  %7 = alloca i32, align 4
  %8 = alloca i32, align 4
  %9 = alloca ptr, align 8
  %10 = alloca ptr, align 8
  %11 = alloca i32, align 4
  %12 = alloca i8, align 1
  %13 = alloca i32, align 4
  %14 = alloca i32, align 4
  %15 = alloca ptr, align 8
  store ptr %0, ptr %6, align 8
  store i32 %1, ptr %7, align 4
  store i32 %2, ptr %8, align 4
  store ptr %3, ptr %9, align 8
  store ptr %4, ptr %10, align 8
  call void @llvm.lifetime.start.p0(i64 4, ptr %11) #5
  %16 = load i32, ptr %7, align 4
  %17 = icmp eq i32 %16, 0
  br i1 %17, label %18, label %19

18:                                               ; preds = %5
  br label %21

19:                                               ; preds = %5
  call void (ptr, ...) @proto_report_dissector_bug(ptr noundef @.str.1860, ptr noundef @.str.1861, i32 noundef 4209, ptr noundef @.str.1862) #6
  unreachable

20:                                               ; No predecessors!
  br label %21

21:                                               ; preds = %20, %18
  %22 = load ptr, ptr %6, align 8
  %23 = load i32, ptr %7, align 4
  %24 = call i32 @tvb_reported_length_remaining(ptr noundef %22, i32 noundef %23)
  %25 = icmp sgt i32 0, %24
  br i1 %25, label %26, label %27

26:                                               ; preds = %21
  br label %31

27:                                               ; preds = %21
  %28 = load ptr, ptr %6, align 8
  %29 = load i32, ptr %7, align 4
  %30 = call i32 @tvb_reported_length_remaining(ptr noundef %28, i32 noundef %29)
  br label %31

31:                                               ; preds = %27, %26
  %32 = phi i32 [ 0, %26 ], [ %30, %27 ]
  store i32 %32, ptr %11, align 4
  %33 = load i32, ptr %11, align 4
  %34 = srem i32 %33, 3
  %35 = icmp ne i32 %34, 0
  br i1 %35, label %36, label %41

36:                                               ; preds = %31
  %37 = load ptr, ptr %9, align 8
  %38 = load ptr, ptr %10, align 8
  %39 = call ptr @proto_tree_get_parent(ptr noundef %38)
  %40 = call ptr (ptr, ptr, ptr, ptr, ...) @expert_add_info_format(ptr noundef %37, ptr noundef %39, ptr noundef @ei_r3_malformed_length, ptr noundef @.str.2029)
  br label %95

41:                                               ; preds = %31
  call void @llvm.lifetime.start.p0(i64 1, ptr %12) #5
  store i8 65, ptr %12, align 1
  call void @llvm.lifetime.start.p0(i64 4, ptr %13) #5
  %42 = load ptr, ptr %10, align 8
  %43 = icmp ne ptr %42, null
  br i1 %43, label %45, label %44

44:                                               ; preds = %41
  store i32 1, ptr %14, align 4
  br label %92

45:                                               ; preds = %41
  store i32 0, ptr %13, align 4
  br label %46

46:                                               ; preds = %86, %45
  %47 = load i32, ptr %13, align 4
  %48 = load i32, ptr %11, align 4
  %49 = icmp slt i32 %47, %48
  br i1 %49, label %50, label %91

50:                                               ; preds = %46
  call void @llvm.lifetime.start.p0(i64 8, ptr %15) #5
  %51 = load ptr, ptr %10, align 8
  %52 = load ptr, ptr %6, align 8
  %53 = load i32, ptr %13, align 4
  %54 = load i32, ptr @ett_r3iopins, align 4
  %55 = load i8, ptr %12, align 1
  %56 = sext i8 %55 to i32
  %57 = icmp eq i32 %56, 73
  br i1 %57, label %58, label %62

58:                                               ; preds = %50
  %59 = load i8, ptr %12, align 1
  %60 = add i8 %59, 1
  store i8 %60, ptr %12, align 1
  %61 = sext i8 %60 to i32
  br label %65

62:                                               ; preds = %50
  %63 = load i8, ptr %12, align 1
  %64 = sext i8 %63 to i32
  br label %65

65:                                               ; preds = %62, %58
  %66 = phi i32 [ %61, %58 ], [ %64, %62 ]
  %67 = call ptr (ptr, ptr, i32, i32, i32, ptr, ptr, ...) @proto_tree_add_subtree_format(ptr noundef %51, ptr noundef %52, i32 noundef %53, i32 noundef 3, i32 noundef %54, ptr noundef null, ptr noundef @.str.2030, i32 noundef %66)
  store ptr %67, ptr %15, align 8
  %68 = load ptr, ptr %15, align 8
  %69 = load i32, ptr @hf_r3_iopins_lat, align 4
  %70 = load ptr, ptr %6, align 8
  %71 = load i32, ptr %13, align 4
  %72 = add i32 %71, 0
  %73 = call ptr @proto_tree_add_item(ptr noundef %68, i32 noundef %69, ptr noundef %70, i32 noundef %72, i32 noundef 1, i32 noundef -2147483648)
  %74 = load ptr, ptr %15, align 8
  %75 = load i32, ptr @hf_r3_iopins_port, align 4
  %76 = load ptr, ptr %6, align 8
  %77 = load i32, ptr %13, align 4
  %78 = add i32 %77, 1
  %79 = call ptr @proto_tree_add_item(ptr noundef %74, i32 noundef %75, ptr noundef %76, i32 noundef %78, i32 noundef 1, i32 noundef -2147483648)
  %80 = load ptr, ptr %15, align 8
  %81 = load i32, ptr @hf_r3_iopins_tris, align 4
  %82 = load ptr, ptr %6, align 8
  %83 = load i32, ptr %13, align 4
  %84 = add i32 %83, 2
  %85 = call ptr @proto_tree_add_item(ptr noundef %80, i32 noundef %81, ptr noundef %82, i32 noundef %84, i32 noundef 1, i32 noundef -2147483648)
  call void @llvm.lifetime.end.p0(i64 8, ptr %15) #5
  br label %86

86:                                               ; preds = %65
  %87 = load i32, ptr %13, align 4
  %88 = add i32 %87, 3
  store i32 %88, ptr %13, align 4
  %89 = load i8, ptr %12, align 1
  %90 = add i8 %89, 1
  store i8 %90, ptr %12, align 1
  br label %46, !llvm.loop !19

91:                                               ; preds = %46
  store i32 0, ptr %14, align 4
  br label %92

92:                                               ; preds = %91, %44
  call void @llvm.lifetime.end.p0(i64 4, ptr %13) #5
  call void @llvm.lifetime.end.p0(i64 1, ptr %12) #5
  %93 = load i32, ptr %14, align 4
  switch i32 %93, label %96 [
    i32 0, label %94
  ]

94:                                               ; preds = %92
  br label %95

95:                                               ; preds = %94, %36
  store i32 0, ptr %14, align 4
  br label %96

96:                                               ; preds = %95, %92
  call void @llvm.lifetime.end.p0(i64 4, ptr %11) #5
  %97 = load i32, ptr %14, align 4
  switch i32 %97, label %99 [
    i32 0, label %98
    i32 1, label %98
  ]

98:                                               ; preds = %96, %96
  ret void

99:                                               ; preds = %96
  unreachable
}