; Function Attrs: null_pointer_is_valid sspstrong uwtable
define internal void @dissect_r3_upstreammfgfield_iopins(ptr noundef %0, i32 noundef %1, i32 %2, ptr noundef %3, ptr noundef %4) #0 {
  %6 = icmp eq i32 %1, 0
  br i1 %6, label %8, label %7

7:                                                ; preds = %5
  tail call void (ptr, ...) @proto_report_dissector_bug(ptr noundef nonnull @.str.1860, ptr noundef nonnull @.str.1861, i32 noundef 4209, ptr noundef nonnull @.str.1862) #6
  unreachable

8:                                                ; preds = %5
  %9 = tail call i32 @tvb_reported_length_remaining(ptr noundef %0, i32 noundef 0)
  %10 = icmp slt i32 %9, 0
  br i1 %10, label %.critedge, label %11

11:                                               ; preds = %8
  %12 = tail call i32 @tvb_reported_length_remaining(ptr noundef %0, i32 noundef 0)
  %13 = srem i32 %12, 3
  %.not = icmp eq i32 %13, 0
  br i1 %.not, label %.thread, label %14

14:                                               ; preds = %11
  %15 = tail call ptr @proto_tree_get_parent(ptr noundef %4)
  %16 = tail call ptr (ptr, ptr, ptr, ptr, ...) @expert_add_info_format(ptr noundef %3, ptr noundef %15, ptr noundef nonnull @ei_r3_malformed_length, ptr noundef nonnull @.str.2029)
  br label %.critedge

.thread:                                          ; preds = %11
  %.not33.not = icmp ne ptr %4, null
  %17 = icmp sgt i32 %12, 0
  %or.cond = and i1 %.not33.not, %17
  br i1 %or.cond, label %.lr.ph, label %.critedge

.lr.ph:                                           ; preds = %.thread, %.lr.ph
  %.036 = phi i8 [ %32, %.lr.ph ], [ 65, %.thread ]
  %.02935 = phi i32 [ %30, %.lr.ph ], [ 0, %.thread ]
  %18 = load i32, ptr @ett_r3iopins, align 4
  %19 = icmp eq i8 %.036, 73
  %narrow = select i1 %19, i8 74, i8 %.036
  %20 = sext i8 %narrow to i32
  %21 = tail call ptr (ptr, ptr, i32, i32, i32, ptr, ptr, ...) @proto_tree_add_subtree_format(ptr noundef nonnull %4, ptr noundef %0, i32 noundef %.02935, i32 noundef 3, i32 noundef %18, ptr noundef null, ptr noundef nonnull @.str.2030, i32 noundef %20)
  %22 = load i32, ptr @hf_r3_iopins_lat, align 4
  %23 = tail call ptr @proto_tree_add_item(ptr noundef %21, i32 noundef %22, ptr noundef %0, i32 noundef %.02935, i32 noundef 1, i32 noundef -2147483648)
  %24 = load i32, ptr @hf_r3_iopins_port, align 4
  %25 = add nsw i32 %.02935, 1
  %26 = tail call ptr @proto_tree_add_item(ptr noundef %21, i32 noundef %24, ptr noundef %0, i32 noundef %25, i32 noundef 1, i32 noundef -2147483648)
  %27 = load i32, ptr @hf_r3_iopins_tris, align 4
  %28 = add i32 %.02935, 2
  %29 = tail call ptr @proto_tree_add_item(ptr noundef %21, i32 noundef %27, ptr noundef %0, i32 noundef %28, i32 noundef 1, i32 noundef -2147483648)
  %30 = add i32 %.02935, 3
  %31 = add i8 %.036, 1
  %32 = select i1 %19, i8 75, i8 %31
  %33 = icmp slt i32 %30, %12
  br i1 %33, label %.lr.ph, label %.critedge, !llvm.loop !18

.critedge:                                        ; preds = %.lr.ph, %8, %.thread, %14
  ret void
}